target datalayout = "e-m:e-p270:32:32-p271:32:32-p272:64:64-i64:64-i128:128-f80:128-n8:16:32:64-S128"
target triple = "x86_64-pc-linux-gnu"

%struct.Aig_Obj_t_ = type { %union.anon, ptr, ptr, i64, i32, i32, %union.anon.0 }
%union.anon = type { ptr }
%union.anon.0 = type { ptr }

@.str.17 = private unnamed_addr constant [11 x i8] c"Node %d : \00", align 1
@.str.18 = private unnamed_addr constant [11 x i8] c"constant 1\00", align 1
@.str.19 = private unnamed_addr constant [3 x i8] c"CI\00", align 1
@.str.20 = private unnamed_addr constant [5 x i8] c"CO( \00", align 1
@.str.21 = private unnamed_addr constant [7 x i8] c"%d%s )\00", align 1
@.str.22 = private unnamed_addr constant [2 x i8] c"'\00", align 1
@.str.23 = private unnamed_addr constant [2 x i8] c" \00", align 1
@.str.24 = private unnamed_addr constant [18 x i8] c"AND( %d%s, %d%s )\00", align 1
@.str.25 = private unnamed_addr constant [14 x i8] c" (refs = %3d)\00", align 1

; Function Attrs: inlinehint nounwind uwtable
define internal i32 @Aig_IsComplement(ptr noundef %0) #4 {
  %2 = alloca ptr, align 8
  store ptr %0, ptr %2, align 8, !tbaa !24
  %3 = load ptr, ptr %2, align 8, !tbaa !24
  %4 = ptrtoint ptr %3 to i64
  %5 = and i64 %4, 1
  %6 = trunc i64 %5 to i32
  ret i32 %6
}

; Function Attrs: inlinehint nounwind uwtable
define internal ptr @Aig_Regular(ptr noundef %0) #4 {
  %2 = alloca ptr, align 8
  store ptr %0, ptr %2, align 8, !tbaa !24
  %3 = load ptr, ptr %2, align 8, !tbaa !24
  %4 = ptrtoint ptr %3 to i64
  %5 = and i64 %4, -2
  %6 = inttoptr i64 %5 to ptr
  ret ptr %6
}

; Function Attrs: inlinehint nounwind uwtable
define internal i32 @Aig_ObjRefs(ptr noundef %0) #4 {
  %2 = alloca ptr, align 8
  store ptr %0, ptr %2, align 8, !tbaa !24
  %3 = load ptr, ptr %2, align 8, !tbaa !24
  %4 = getelementptr inbounds nuw %struct.Aig_Obj_t_, ptr %3, i32 0, i32 3
  %5 = load i64, ptr %4, align 8
  %6 = lshr i64 %5, 6
  %7 = and i64 %6, 67108863
  %8 = trunc i64 %7 to i32
  ret i32 %8
}

; Function Attrs: inlinehint nounwind uwtable
define internal i32 @Aig_ObjFaninC1(ptr noundef %0) #4 {
  %2 = alloca ptr, align 8
  store ptr %0, ptr %2, align 8, !tbaa !24
  %3 = load ptr, ptr %2, align 8, !tbaa !24
  %4 = getelementptr inbounds nuw %struct.Aig_Obj_t_, ptr %3, i32 0, i32 2
  %5 = load ptr, ptr %4, align 8, !tbaa !40
  %6 = call i32 @Aig_IsComplement(ptr noundef %5)
  ret i32 %6
}

; Function Attrs: inlinehint nounwind uwtable
define internal ptr @Aig_ObjFanin1(ptr noundef %0) #4 {
  %2 = alloca ptr, align 8
  store ptr %0, ptr %2, align 8, !tbaa !24
  %3 = load ptr, ptr %2, align 8, !tbaa !24
  %4 = getelementptr inbounds nuw %struct.Aig_Obj_t_, ptr %3, i32 0, i32 2
  %5 = load ptr, ptr %4, align 8, !tbaa !40
  %6 = call ptr @Aig_Regular(ptr noundef %5)
  ret ptr %6
}

; Function Attrs: inlinehint nounwind uwtable
define internal i32 @Aig_ObjFaninC0(ptr noundef %0) #4 {
  %2 = alloca ptr, align 8
  store ptr %0, ptr %2, align 8, !tbaa !24
  %3 = load ptr, ptr %2, align 8, !tbaa !24
  %4 = getelementptr inbounds nuw %struct.Aig_Obj_t_, ptr %3, i32 0, i32 1
  %5 = load ptr, ptr %4, align 8, !tbaa !37
  %6 = call i32 @Aig_IsComplement(ptr noundef %5)
  ret i32 %6
}

; Function Attrs: inlinehint nounwind uwtable
define internal ptr @Aig_ObjFanin0(ptr noundef %0) #4 {
  %2 = alloca ptr, align 8
  store ptr %0, ptr %2, align 8, !tbaa !24
  %3 = load ptr, ptr %2, align 8, !tbaa !24
  %4 = getelementptr inbounds nuw %struct.Aig_Obj_t_, ptr %3, i32 0, i32 1
  %5 = load ptr, ptr %4, align 8, !tbaa !37
  %6 = call ptr @Aig_Regular(ptr noundef %5)
  ret ptr %6
}

; Function Attrs: inlinehint nounwind uwtable
define internal i32 @Aig_ObjIsCo(ptr noundef %0) #4 {
  %2 = alloca ptr, align 8
  store ptr %0, ptr %2, align 8, !tbaa !24
  %3 = load ptr, ptr %2, align 8, !tbaa !24
  %4 = getelementptr inbounds nuw %struct.Aig_Obj_t_, ptr %3, i32 0, i32 3
  %5 = load i64, ptr %4, align 8
  %6 = and i64 %5, 7
  %7 = trunc i64 %6 to i32
  %8 = icmp eq i32 %7, 3
  %9 = zext i1 %8 to i32
  ret i32 %9
}

; Function Attrs: inlinehint nounwind uwtable
define internal i32 @Aig_ObjIsCi(ptr noundef %0) #4 {
  %2 = alloca ptr, align 8
  store ptr %0, ptr %2, align 8, !tbaa !24
  %3 = load ptr, ptr %2, align 8, !tbaa !24
  %4 = getelementptr inbounds nuw %struct.Aig_Obj_t_, ptr %3, i32 0, i32 3
  %5 = load i64, ptr %4, align 8
  %6 = and i64 %5, 7
  %7 = trunc i64 %6 to i32
  %8 = icmp eq i32 %7, 2
  %9 = zext i1 %8 to i32
  ret i32 %9
}

; Function Attrs: inlinehint nounwind uwtable
define internal i32 @Aig_ObjIsConst1(ptr noundef %0) #4 {
  %2 = alloca ptr, align 8
  store ptr %0, ptr %2, align 8, !tbaa !24
  %3 = load ptr, ptr %2, align 8, !tbaa !24
  %4 = getelementptr inbounds nuw %struct.Aig_Obj_t_, ptr %3, i32 0, i32 3
  %5 = load i64, ptr %4, align 8
  %6 = and i64 %5, 7
  %7 = trunc i64 %6 to i32
  %8 = icmp eq i32 %7, 1
  %9 = zext i1 %8 to i32
  ret i32 %9
}

; Function Attrs: nounwind uwtable
define void @Aig_ObjPrintVerbose(ptr noundef %0, i32 noundef %1) #0 {
  %3 = alloca ptr, align 8
  %4 = alloca i32, align 4
  store ptr %0, ptr %3, align 8, !tbaa !24
  store i32 %1, ptr %4, align 4, !tbaa !22
  %5 = load ptr, ptr %3, align 8, !tbaa !24
  %6 = getelementptr inbounds nuw %struct.Aig_Obj_t_, ptr %5, i32 0, i32 5
  %7 = load i32, ptr %6, align 4, !tbaa !47
  %8 = call i32 (ptr, ...) @printf(ptr noundef @.str.17, i32 noundef %7)
  %9 = load ptr, ptr %3, align 8, !tbaa !24
  %10 = call i32 @Aig_ObjIsConst1(ptr noundef %9)
  %11 = icmp ne i32 %10, 0
  br i1 %11, label %12, label %14

12:                                               ; preds = %2
  %13 = call i32 (ptr, ...) @printf(ptr noundef @.str.18)
  br label %55

14:                                               ; preds = %2
  %15 = load ptr, ptr %3, align 8, !tbaa !24
  %16 = call i32 @Aig_ObjIsCi(ptr noundef %15)
  %17 = icmp ne i32 %16, 0
  br i1 %17, label %18, label %20

18:                                               ; preds = %14
  %19 = call i32 (ptr, ...) @printf(ptr noundef @.str.19)
  br label %54

20:                                               ; preds = %14
  %21 = load ptr, ptr %3, align 8, !tbaa !24
  %22 = call i32 @Aig_ObjIsCo(ptr noundef %21)
  %23 = icmp ne i32 %22, 0
  br i1 %23, label %24, label %35

24:                                               ; preds = %20
  %25 = call i32 (ptr, ...) @printf(ptr noundef @.str.20)
  %26 = load ptr, ptr %3, align 8, !tbaa !24
  %27 = call ptr @Aig_ObjFanin0(ptr noundef %26)
  %28 = getelementptr inbounds nuw %struct.Aig_Obj_t_, ptr %27, i32 0, i32 5
  %29 = load i32, ptr %28, align 4, !tbaa !47
  %30 = load ptr, ptr %3, align 8, !tbaa !24
  %31 = call i32 @Aig_ObjFaninC0(ptr noundef %30)
  %32 = icmp ne i32 %31, 0
  %33 = select i1 %32, ptr @.str.22, ptr @.str.23
  %34 = call i32 (ptr, ...) @printf(ptr noundef @.str.21, i32 noundef %29, ptr noundef %33)
  br label %53

35:                                               ; preds = %20
  %36 = load ptr, ptr %3, align 8, !tbaa !24
  %37 = call ptr @Aig_ObjFanin0(ptr noundef %36)
  %38 = getelementptr inbounds nuw %struct.Aig_Obj_t_, ptr %37, i32 0, i32 5
  %39 = load i32, ptr %38, align 4, !tbaa !47
  %40 = load ptr, ptr %3, align 8, !tbaa !24
  %41 = call i32 @Aig_ObjFaninC0(ptr noundef %40)
  %42 = icmp ne i32 %41, 0
  %43 = select i1 %42, ptr @.str.22, ptr @.str.23
  %44 = load ptr, ptr %3, align 8, !tbaa !24
  %45 = call ptr @Aig_ObjFanin1(ptr noundef %44)
  %46 = getelementptr inbounds nuw %struct.Aig_Obj_t_, ptr %45, i32 0, i32 5
  %47 = load i32, ptr %46, align 4, !tbaa !47
  %48 = load ptr, ptr %3, align 8, !tbaa !24
  %49 = call i32 @Aig_ObjFaninC1(ptr noundef %48)
  %50 = icmp ne i32 %49, 0
  %51 = select i1 %50, ptr @.str.22, ptr @.str.23
  %52 = call i32 (ptr, ...) @printf(ptr noundef @.str.24, i32 noundef %39, ptr noundef %43, i32 noundef %47, ptr noundef %51)
  br label %53

53:                                               ; preds = %35, %24
  br label %54

54:                                               ; preds = %53, %18
  br label %55

55:                                               ; preds = %54, %12
  %56 = load ptr, ptr %3, align 8, !tbaa !24
  %57 = call i32 @Aig_ObjRefs(ptr noundef %56)
  %58 = call i32 (ptr, ...) @printf(ptr noundef @.str.25, i32 noundef %57)
  ret void
}