; Function Attrs: nofree nounwind uwtable
define void @Aig_ObjPrintVerbose(ptr noundef readonly captures(none) %0, i32 %1) local_unnamed_addr #13 {
  %3 = getelementptr inbounds nuw i8, ptr %0, i64 36
  %4 = load i32, ptr %3, align 4, !tbaa !44
  %5 = tail call i32 (ptr, ...) @printf(ptr noundef nonnull dereferenceable(1) @.str.17, i32 noundef %4)
  %6 = getelementptr i8, ptr %0, i64 24
  %.val22 = load i64, ptr %6, align 8
  %7 = and i64 %.val22, 7
  switch i64 %7, label %23 [
    i64 1, label %8
    i64 2, label %10
    i64 3, label %12
  ]

8:                                                ; preds = %2
  %9 = tail call i32 (ptr, ...) @printf(ptr noundef nonnull dereferenceable(1) @.str.18)
  br label %41

10:                                               ; preds = %2
  %11 = tail call i32 (ptr, ...) @printf(ptr noundef nonnull dereferenceable(1) @.str.19)
  br label %41

12:                                               ; preds = %2
  %13 = tail call i32 (ptr, ...) @printf(ptr noundef nonnull dereferenceable(1) @.str.20)
  %14 = getelementptr i8, ptr %0, i64 8
  %.val16 = load ptr, ptr %14, align 8, !tbaa !32
  %15 = ptrtoint ptr %.val16 to i64
  %16 = and i64 %15, -2
  %17 = inttoptr i64 %16 to ptr
  %18 = getelementptr inbounds nuw i8, ptr %17, i64 36
  %19 = load i32, ptr %18, align 4, !tbaa !44
  %20 = and i64 %15, 1
  %.not15 = icmp eq i64 %20, 0
  %21 = select i1 %.not15, ptr @.str.23, ptr @.str.22
  %22 = tail call i32 (ptr, ...) @printf(ptr noundef nonnull dereferenceable(1) @.str.21, i32 noundef %19, ptr noundef nonnull %21)
  br label %41

23:                                               ; preds = %2
  %24 = getelementptr i8, ptr %0, i64 8
  %.val = load ptr, ptr %24, align 8, !tbaa !32
  %25 = ptrtoint ptr %.val to i64
  %26 = and i64 %25, -2
  %27 = inttoptr i64 %26 to ptr
  %28 = getelementptr inbounds nuw i8, ptr %27, i64 36
  %29 = load i32, ptr %28, align 4, !tbaa !44
  %30 = and i64 %25, 1
  %.not13 = icmp eq i64 %30, 0
  %31 = select i1 %.not13, ptr @.str.23, ptr @.str.22
  %32 = getelementptr i8, ptr %0, i64 16
  %.val17 = load ptr, ptr %32, align 8, !tbaa !35
  %33 = ptrtoint ptr %.val17 to i64
  %34 = and i64 %33, -2
  %35 = inttoptr i64 %34 to ptr
  %36 = getelementptr inbounds nuw i8, ptr %35, i64 36
  %37 = load i32, ptr %36, align 4, !tbaa !44
  %38 = and i64 %33, 1
  %.not14 = icmp eq i64 %38, 0
  %39 = select i1 %.not14, ptr @.str.23, ptr @.str.22
  %40 = tail call i32 (ptr, ...) @printf(ptr noundef nonnull dereferenceable(1) @.str.24, i32 noundef %29, ptr noundef nonnull %31, i32 noundef %37, ptr noundef nonnull %39)
  br label %41

41:                                               ; preds = %10, %23, %12, %8
  %.val24 = load i64, ptr %6, align 8
  %42 = trunc i64 %.val24 to i32
  %43 = lshr i32 %42, 6
  %44 = tail call i32 (ptr, ...) @printf(ptr noundef nonnull dereferenceable(1) @.str.25, i32 noundef %43)
  ret void
}